GAS LISTING /tmp/ccl2HZAE.s 			page 1


   1               		.file	"main.cpp"
   2               	__SP_H__ = 0x3e
   3               	__SP_L__ = 0x3d
   4               	__SREG__ = 0x3f
   5               	__tmp_reg__ = 0
   6               	__zero_reg__ = 1
   7               		.text
   8               		.section	.text.startup.main,"ax",@progbits
   9               	.global	main
  11               	main:
  12               	/* prologue: function */
  13               	/* frame size = 0 */
  14               	/* stack size = 0 */
  15               	.L__stack_usage = 0
  16 0000 259A      		sbi 0x4,5
  17 0002 529A      		sbi 0xa,2
  18 0004 8091 6900 		lds r24,105
  19 0008 8260      		ori r24,lo8(2)
  20 000a 8093 6900 		sts 105,r24
  21 000e 8091 6900 		lds r24,105
  22 0012 8E7F      		andi r24,lo8(-2)
  23 0014 8093 6900 		sts 105,r24
  24 0018 E09A      		sbi 0x1c,0
  25 001a E89A      		sbi 0x1d,0
  26 001c 539A      		sbi 0xa,3
  27 001e 8091 6900 		lds r24,105
  28 0022 8860      		ori r24,lo8(8)
  29 0024 8093 6900 		sts 105,r24
  30 0028 8091 6900 		lds r24,105
  31 002c 8B7F      		andi r24,lo8(-5)
  32 002e 8093 6900 		sts 105,r24
  33 0032 E19A      		sbi 0x1c,1
  34 0034 E99A      		sbi 0x1d,1
  35               	/* #APP */
  36               	 ;  52 "main.cpp" 1
  37 0036 7894      		sei
  38               	 ;  0 "" 2
  39               	/* #NOAPP */
  40 0038 90E2      		ldi r25,lo8(32)
  41               	.L5:
  42 003a 8091 0000 		lds r24,blinkSpeed
  43 003e 8230      		cpi r24,lo8(2)
  44 0040 01F0      		breq .L2
  45 0042 8330      		cpi r24,lo8(3)
  46 0044 01F0      		breq .L3
  47 0046 8130      		cpi r24,lo8(1)
  48 0048 01F4      		brne .L5
  49               	.L4:
  50 004a 2FEF      		ldi r18,lo8(319999)
  51 004c 31EE      		ldi r19,hi8(319999)
  52 004e 84E0      		ldi r24,hlo8(319999)
  53 0050 2150      	1:	subi r18,1
  54 0052 3040      		sbci r19,0
  55 0054 8040      		sbci r24,0
  56 0056 01F4      		brne 1b
  57 0058 00C0      		rjmp .
  58 005a 0000      		nop
GAS LISTING /tmp/ccl2HZAE.s 			page 2


  59 005c 85B1      		in r24,0x5
  60 005e 8927      		eor r24,r25
  61 0060 85B9      		out 0x5,r24
  62 0062 00C0      		rjmp .L5
  63               	.L3:
  64 0064 2FEF      		ldi r18,lo8(319999)
  65 0066 31EE      		ldi r19,hi8(319999)
  66 0068 84E0      		ldi r24,hlo8(319999)
  67 006a 2150      	1:	subi r18,1
  68 006c 3040      		sbci r19,0
  69 006e 8040      		sbci r24,0
  70 0070 01F4      		brne 1b
  71 0072 00C0      		rjmp .
  72 0074 0000      		nop
  73               	.L2:
  74 0076 2FEF      		ldi r18,lo8(319999)
  75 0078 31EE      		ldi r19,hi8(319999)
  76 007a 84E0      		ldi r24,hlo8(319999)
  77 007c 2150      	1:	subi r18,1
  78 007e 3040      		sbci r19,0
  79 0080 8040      		sbci r24,0
  80 0082 01F4      		brne 1b
  81 0084 00C0      		rjmp .
  82 0086 0000      		nop
  83 0088 00C0      		rjmp .L4
  85               		.section	.text.__vector_1,"ax",@progbits
  86               	.global	__vector_1
  88               	__vector_1:
  89 0000 1F92 1FB6 		__gcc_isr 1
  89      1F92 1124 
  90               	/* prologue: Signal */
  91               	/* frame size = 0 */
  92               	/* stack size = 0...3 */
  93               	.L__stack_usage = 0 + __gcc_isr.n_pushed
  94 0008 1092 0000 		sts blinkSpeed,__zero_reg__
  95               	/* epilogue start */
  96 000c 1F90 1FBE 		__gcc_isr 2
  96      1F90 
  97 0012 1895      		reti
  98               		__gcc_isr 0,r0
 100               		.section	.text.__vector_2,"ax",@progbits
 101               	.global	__vector_2
 103               	__vector_2:
 104 0000 8F93 8FB7 		__gcc_isr 1
 104      8F93 
 105               	/* prologue: Signal */
 106               	/* frame size = 0 */
 107               	/* stack size = 0...4 */
 108               	.L__stack_usage = 0 + __gcc_isr.n_pushed
 109 0006 8091 0000 		lds r24,blinkSpeed
 110 000a 8330      		cpi r24,lo8(3)
 111 000c 01F0      		breq .L15
 112 000e 8091 0000 		lds r24,blinkSpeed
 113 0012 8F5F      		subi r24,lo8(-(1))
 114               	.L15:
 115 0014 8093 0000 		sts blinkSpeed,r24
 116               	/* epilogue start */
GAS LISTING /tmp/ccl2HZAE.s 			page 3


 117 0018 8F91 8FBF 		__gcc_isr 2
 117      8F91 
 118 001e 1895      		reti
 119               		__gcc_isr 0,r24
 121               	.global	blinkSpeed
 122               		.section	.data.blinkSpeed,"aw"
 125               	blinkSpeed:
 126 0000 01        		.byte	1
 127               		.ident	"GCC: (GNU) 14.2.0"
 128               	.global __do_copy_data
GAS LISTING /tmp/ccl2HZAE.s 			page 4


DEFINED SYMBOLS
                            *ABS*:00000000 main.cpp
     /tmp/ccl2HZAE.s:2      *ABS*:0000003e __SP_H__
     /tmp/ccl2HZAE.s:3      *ABS*:0000003d __SP_L__
     /tmp/ccl2HZAE.s:4      *ABS*:0000003f __SREG__
     /tmp/ccl2HZAE.s:5      *ABS*:00000000 __tmp_reg__
     /tmp/ccl2HZAE.s:6      *ABS*:00000001 __zero_reg__
     /tmp/ccl2HZAE.s:11     .text.startup.main:00000000 main
     /tmp/ccl2HZAE.s:125    .data.blinkSpeed:00000000 blinkSpeed
     /tmp/ccl2HZAE.s:57     .text.startup.main:0000005a L0
     /tmp/ccl2HZAE.s:71     .text.startup.main:00000074 L0
     /tmp/ccl2HZAE.s:81     .text.startup.main:00000086 L0
     /tmp/ccl2HZAE.s:88     .text.__vector_1:00000000 __vector_1
                            *ABS*:00000002 __gcc_isr.n_pushed.001
     /tmp/ccl2HZAE.s:103    .text.__vector_2:00000000 __vector_2
                            *ABS*:00000002 __gcc_isr.n_pushed.002
     /tmp/ccl2HZAE.s:73     .text.startup.main:00000076 .L2
     /tmp/ccl2HZAE.s:63     .text.startup.main:00000064 .L3
     /tmp/ccl2HZAE.s:41     .text.startup.main:0000003a .L5
     /tmp/ccl2HZAE.s:53     .text.startup.main:00000050 .L11
     /tmp/ccl2HZAE.s:67     .text.startup.main:0000006a .L12
     /tmp/ccl2HZAE.s:77     .text.startup.main:0000007c .L13
     /tmp/ccl2HZAE.s:49     .text.startup.main:0000004a .L4
     /tmp/ccl2HZAE.s:114    .text.__vector_2:00000014 .L15

UNDEFINED SYMBOLS
__do_copy_data
