
build/application_cpp.elf:     formato de ficheiro elf32-avr


Desmontagem da secção .text:

00000000 <__vectors>:
   0:	0c 94 34 00 	jmp	0x68	; 0x68 <__ctors_end>
   4:	0c 94 3e 00 	jmp	0x7c	; 0x7c <__bad_interrupt>
   8:	0c 94 3e 00 	jmp	0x7c	; 0x7c <__bad_interrupt>
   c:	0c 94 3e 00 	jmp	0x7c	; 0x7c <__bad_interrupt>
  10:	0c 94 3e 00 	jmp	0x7c	; 0x7c <__bad_interrupt>
  14:	0c 94 3e 00 	jmp	0x7c	; 0x7c <__bad_interrupt>
  18:	0c 94 3e 00 	jmp	0x7c	; 0x7c <__bad_interrupt>
  1c:	0c 94 3e 00 	jmp	0x7c	; 0x7c <__bad_interrupt>
  20:	0c 94 3e 00 	jmp	0x7c	; 0x7c <__bad_interrupt>
  24:	0c 94 3e 00 	jmp	0x7c	; 0x7c <__bad_interrupt>
  28:	0c 94 3e 00 	jmp	0x7c	; 0x7c <__bad_interrupt>
  2c:	0c 94 3e 00 	jmp	0x7c	; 0x7c <__bad_interrupt>
  30:	0c 94 3e 00 	jmp	0x7c	; 0x7c <__bad_interrupt>
  34:	0c 94 3e 00 	jmp	0x7c	; 0x7c <__bad_interrupt>
  38:	0c 94 3e 00 	jmp	0x7c	; 0x7c <__bad_interrupt>
  3c:	0c 94 3e 00 	jmp	0x7c	; 0x7c <__bad_interrupt>
  40:	0c 94 3e 00 	jmp	0x7c	; 0x7c <__bad_interrupt>
  44:	0c 94 3e 00 	jmp	0x7c	; 0x7c <__bad_interrupt>
  48:	0c 94 3e 00 	jmp	0x7c	; 0x7c <__bad_interrupt>
  4c:	0c 94 3e 00 	jmp	0x7c	; 0x7c <__bad_interrupt>
  50:	0c 94 3e 00 	jmp	0x7c	; 0x7c <__bad_interrupt>
  54:	0c 94 3e 00 	jmp	0x7c	; 0x7c <__bad_interrupt>
  58:	0c 94 3e 00 	jmp	0x7c	; 0x7c <__bad_interrupt>
  5c:	0c 94 3e 00 	jmp	0x7c	; 0x7c <__bad_interrupt>
  60:	0c 94 3e 00 	jmp	0x7c	; 0x7c <__bad_interrupt>
  64:	0c 94 3e 00 	jmp	0x7c	; 0x7c <__bad_interrupt>

00000068 <__ctors_end>:
  68:	11 24       	eor	r1, r1
  6a:	1f be       	out	0x3f, r1	; 63
  6c:	cf ef       	ldi	r28, 0xFF	; 255
  6e:	d8 e0       	ldi	r29, 0x08	; 8
  70:	de bf       	out	0x3e, r29	; 62
  72:	cd bf       	out	0x3d, r28	; 61
  74:	0e 94 40 00 	call	0x80	; 0x80 <main>
  78:	0c 94 62 00 	jmp	0xc4	; 0xc4 <_exit>

0000007c <__bad_interrupt>:
  7c:	0c 94 00 00 	jmp	0	; 0x0 <__vectors>

00000080 <main>:
  80:	8f ef       	ldi	r24, 0xFF	; 255
  82:	8a b9       	out	0x0a, r24	; 10
  84:	1b b8       	out	0x0b, r1	; 11

00000086 <.L6>:
  86:	82 e0       	ldi	r24, 0x02	; 2

00000088 <.L2>:
  88:	91 e0       	ldi	r25, 0x01	; 1

0000008a <.L3>:
  8a:	28 2f       	mov	r18, r24
  8c:	29 2b       	or	r18, r25
  8e:	2b b9       	out	0x0b, r18	; 11
  90:	2f ef       	ldi	r18, 0xFF	; 255
  92:	34 e3       	ldi	r19, 0x34	; 52
  94:	4c e0       	ldi	r20, 0x0C	; 12

00000096 <.L1^B1>:
  96:	21 50       	subi	r18, 0x01	; 1
  98:	30 40       	sbci	r19, 0x00	; 0
  9a:	40 40       	sbci	r20, 0x00	; 0
  9c:	e1 f7       	brne	.-8      	; 0x96 <.L1^B1>
  9e:	00 c0       	rjmp	.+0      	; 0xa0 <L0^A>

000000a0 <L0^A>:
  a0:	00 00       	nop
  a2:	99 0f       	add	r25, r25
  a4:	98 17       	cp	r25, r24
  a6:	88 f3       	brcs	.-30     	; 0x8a <.L3>
  a8:	8b b9       	out	0x0b, r24	; 11
  aa:	9f ef       	ldi	r25, 0xFF	; 255
  ac:	24 e3       	ldi	r18, 0x34	; 52
  ae:	3c e0       	ldi	r19, 0x0C	; 12

000000b0 <.L1^B2>:
  b0:	91 50       	subi	r25, 0x01	; 1
  b2:	20 40       	sbci	r18, 0x00	; 0
  b4:	30 40       	sbci	r19, 0x00	; 0
  b6:	e1 f7       	brne	.-8      	; 0xb0 <.L1^B2>
  b8:	00 c0       	rjmp	.+0      	; 0xba <L0^A>

000000ba <L0^A>:
  ba:	00 00       	nop
  bc:	88 0f       	add	r24, r24
  be:	81 15       	cp	r24, r1
  c0:	11 f3       	breq	.-60     	; 0x86 <.L6>
  c2:	e2 cf       	rjmp	.-60     	; 0x88 <.L2>

000000c4 <_exit>:
  c4:	f8 94       	cli

000000c6 <__stop_program>:
  c6:	ff cf       	rjmp	.-2      	; 0xc6 <__stop_program>
